(lp1
(lp2
I1036
aI1015
aI1028
aI1184
aI1313
aI1357
aI1304
aI1342
aI1389
aI1391
aI1445
aI1458
aI1481
aI1441
aI1399
aI1392
aI1431
aI1485
aI1435
aI1472
aI1502
aI1511
aI1537
aI1527
aI1622
aI1657
aI1611
aI1643
aI1624
aI1694
aI1696
aI1681
aI1755
aI1760
aI1761
aI1689
aI1735
aI1862
aI1866
aI1873
aI1786
aI1773
aI1767
aI1835
aI1871
aI1881
aI1894
aI1835
aI1822
aI1799
aI1869
aI1904
aI1881
aI1923
aI1929
aI1850
aI1941
aI1968
aI2036
aI2065
aI2031
aI2088
aI2054
aI2065
aI2151
aI1997
aI2069
aI1964
aI1984
aI1947
aI2172
aI2083
aI2208
aI1977
aI1890
aI2064
aI2073
aI2171
aI2207
aI2165
aI1998
aI2113
aI2319
aI2438
aI2492
aI2546
aI2628
aI2577
aI2529
aI2633
aI2602
aI2644
aI2515
aI2410
aI2411
aI2730
aI2764
aI2549
aI2412
aI2467
aI2617
aI2541
aI2538
aI2723
aI2678
aI2893
aI2907
aI2883
aI2810
aI2926
aI2874
aI2956
aI2900
aI2976
aI2876
aI3034
aI2964
aI3020
aI3100
aI3170
aI3064
aI3101
aI3138
aI3079
aI2841
aI3097
aI2783
aI3013
aI3116
aI3130
aI3184
aI3067
aI3064
aI3161
aI3167
aI3258
aI3281
aI3141
aI3321
aI3097
aI3204
aI3195
aI3091
aI3117
aI3148
aI3233
aI3146
aI3367
aI3381
aI3408
aI3330
aI3380
aI3370
aI3251
aI3446
aI3397
aI3087
aI3398
aI3349
aI3257
aI3353
aI3462
aI3542
aI3643
aI3481
aI3362
aI3299
aI3253
aI3279
aI3389
aI3403
aI3236
aI3207
aI3240
aI3203
aI3221
aI3464
aI3680
aI3568
aI3476
aI3377
aI3494
aI3622
aI3576
aI3620
aI3653
aI3778
aI3573
aI3445
aI3581
aI3729
aI3730
aI3867
aI3832
aI3919
aI3651
aI3527
aI3566
aI3520
aI3596
aI3963
aI3980
aI4027
aI4126
aI4220
aI4221
aI4006
aI4008
aI4061
aI4059
aI4159
aI4119
aI4183
aI3910
aI3928
aI3882
aI4055
aI3913
aI4007
aI3986
aI3920
aI4044
aI4139
aI4028
aI3869
aI3893
aI3877
aI3983
aI3931
aI3859
aI4060
aI4166
aI3955
aI4219
aI4149
aI4023
aI3962
aI4438
aI4283
aI4204
aI4203
aI4305
aI4275
aI4200
aI4263
aI4239
aI4229
aI4086
aI4293
aI4471
aI4449
aI4534
aI4505
aI4474
aI4565
aI4627
aI4627
aI4560
aI4583
aI4814
aI4784
aI4635
aI4513
aI4639
aI4769
aI4861
aI4592
aI4782
aI4774
aI4670
aI4637
aI4637
aI4702
aI4604
aI4648
aI4725
aI4586
aI4795
aI4864
aI4732
aI4845
aI4910
aI4827
aI4588
aI4736
aI4696
aI4592
aI4878
aI4880
aI4703
aI4844
aI4884
aI4925
aI4945
aI4838
aI4876
aI4836
aI4855
aI4862
aI4791
aa(lp3
I1062
aI1079
aI1032
aI1158
aI1192
aI1293
aI1236
aI1246
aI1240
aI1312
aI1390
aI1428
aI1347
aI1459
aI1620
aI1520
aI1614
aI1629
aI1641
aI1711
aI1778
aI1759
aI1701
aI1659
aI1637
aI1687
aI1755
aI1782
aI1818
aI1871
aI1865
aI1939
aI2008
aI2046
aI2089
aI2073
aI2093
aI2149
aI2143
aI2222
aI2260
aI2243
aI2347
aI2400
aI2453
aI2434
aI2502
aI2559
aI2463
aI2594
aI2780
aI2796
aI2801
aI2881
aI2955
aI3027
aI3059
aI3103
aI3143
aI3168
aI3088
aI2979
aI3104
aI3250
aI3207
aI3180
aI3355
aI3457
aI3294
aI3397
aI3388
aI3470
aI3563
aI3538
aI3390
aI3311
aI3239
aI3464
aI3637
aI3717
aI3679
aI3669
aI3708
aI3781
aI3787
aI3678
aI3709
aI3751
aI3707
aI3924
aI3989
aI4058
aI3884
aI3837
aI3999
aI3992
aI4029
aI4140
aI3937
aI3793
aI4062
aI4169
aI4206
aI4228
aI4256
aI4181
aI4202
aI3918
aI3895
aI4018
aI4043
aI4055
aI4152
aI4289
aI4373
aI4075
aI4356
aI4400
aI4414
aI4314
aI4140
aI4183
aI4360
aI4473
aI4410
aI4498
aI4351
aI4472
aI4527
aI4615
aI4532
aI4496
aI4420
aI4590
aI4521
aI4629
aI4653
aI4641
aI4471
aI4448
aI4679
aI4658
aI4659
aI4710
aI4749
aI4645
aI4728
aI4747
aI4643
aI4584
aI4717
aI4723
aI4674
aI4775
aI4761
aI4784
aI4754
aI4859
aI4815
aI4698
aI4762
aI4699
aI4858
aI4847
aI4735
aI4763
aI4781
aI4880
aI4917
aI4911
aI4986
aI4973
aI4889
aI4849
aI4931
aI4812
aI4836
aI4947
aI4958
aI5038
aI4885
aI4868
aI4925
aI4995
aI4979
aI5110
aI5087
aI5021
aI5127
aI5091
aI5068
aI4892
aI4820
aI4978
aI4918
aI5095
aI5090
aI5053
aI5005
aI4989
aI5051
aI4992
aI5007
aI5197
aI5176
aI5075
aI5154
aI5222
aI5217
aI5186
aI5212
aI5265
aI5220
aI5218
aI5239
aI5252
aI5222
aI5249
aI5256
aI5345
aI5336
aI5114
aI5234
aI5292
aI5161
aI5195
aI5245
aI5283
aI5234
aI5300
aI5220
aI5314
aI5375
aI5287
aI5229
aI5199
aI5227
aI5208
aI5132
aI5235
aI5189
aI5166
aI5217
aI5185
aI5261
aI5404
aI5500
aI5592
aI5552
aI5511
aI5496
aI5366
aI5356
aI5405
aI5566
aI5751
aI5671
aI5633
aI5616
aI5612
aI5509
aI5593
aI5680
aI5603
aI5478
aI5540
aI5625
aI5519
aI5620
aI5612
aI5601
aI5728
aI5865
aI5786
aI5702
aI5749
aI5832
aI6005
aI5916
aI5836
aI5912
aI5943
aI5968
aI5794
aI5647
aI5622
aI5482
aI5442
aI5484
aI5725
aI5606
aI5681
aI5741
aI5590
aI5933
aI5911
aI5817
aI5749
aI5916
aI5934
aa(lp4
I1115
aI1009
aI680
aI940
aI754
aI815
aI980
aI966
aI999
aI917
aI907
aI983
aI925
aI1045
aI1005
aI980
aI980
aI980
aI980
aI980
aI980
aI980
aI980
aI980
aI980
aI980
aI980
aI980
aI1014
aI1190
aI1221
aI1205
aI1209
aI1133
aI1012
aI982
aI991
aI1135
aI1382
aI1571
aI1718
aI1873
aI1592
aI1584
aI1626
aI1733
aI1786
aI1784
aI1682
aI1574
aI1532
aI1621
aI1641
aI1644
aI1562
aI1520
aI1531
aI1528
aI1550
aI1495
aI1402
aI1342
aI1354
aI1470
aI1564
aI1629
aI1639
aI1640
aI1643
aI1642
aI1649
aI1657
aI1712
aI2045
aI2011
aI1875
aI1869
aI1868
aI1867
aI1870
aI1952
aI2019
aI1731
aI1692
aI1681
aI1738
aI1739
aI1740
aI1738
aI1735
aI1762
aI1762
aI1766
aI1734
aI1734
aI1766
aI1800
aI1848
aI1903
aI2055
aI2191
aI2169
aI2087
aI2110
aI2120
aI2190
aI2145
aI2105
aI2084
aI2111
aI2215
aI2197
aI2185
aI2063
aI1885
aI1827
aI1799
aI1770
aI1765
aI1784
aI1870
aI2059
aI2235
aI2217
aI2247
aI2238
aI2237
aI2234
aI2294
aI2352
aI2053
aI1952
aI1859
aI1928
aI2188
aI2326
aI2280
aI2249
aI2178
aI1974
aI1956
aI1956
aI1948
aI1949
aI1955
aI1987
aI2122
aI2218
aI2305
aI2267
aI2126
aI2047
aI2027
aI2243
aI2271
aI2106
aI1978
aI1939
aI1924
aI1920
aI1926
aI1928
aI1933
aI1937
aI1940
aI1939
aI1938
aI1933
aI1933
aI1931
aI1929
aI1931
aI1933
aI1942
aI1937
aI1937
aI1940
aI1939
aI1938
aI1937
aI1937
aI1932
aI1917
aI1907
aI1898
aI1888
aI1879
aI1862
aI1852
aI1827
aI1816
aI1817
aI1837
aI1852
aI1858
aI1860
aI1847
aI1835
aI1821
aI1830
aI1879
aI1949
aI2002
aI2119
aI2177
aI2196
aI2188
aI2235
aI2412
aI2290
aI2188
aI2149
aI2160
aI2267
aI2543
aI2469
aI2406
aI2383
aI2409
aI2446
aI2529
aI2599
aI2536
aI2496
aI2474
aI2450
aI2449
aI2537
aI2569
aI2591
aI2614
aI2610
aI2606
aI2618
aI2577
aI2507
aI2441
aI2342
aI2310
aI2333
aI2401
aI2462
aI2525
aI2583
aI2488
aI2431
aI2443
aI2542
aI2538
aI2533
aI2523
aI2522
aI2516
aI2533
aI2540
aI2543
aI2549
aI2556
aI2560
aI2563
aI2567
aI2575
aI2579
aI2560
aI2535
aI2505
aI2467
aI2417
aI2381
aI2336
aI2354
aI2380
aI2434
aI2493
aI2553
aI2606
aI2627
aI2657
aI2656
aI2637
aI2625
aI2599
aI2596
aI2599
aI2595
aI2564
aI2540
aI2564
aI2596
aI2643
aI2630
aI2598
aI2567
aI2543
aI2530
aI2521
aI2496
aI2473
aI2465
aI2492
aa(lp5
I974
aI974
aI844
aI796
aI815
aI893
aI914
aI954
aI945
aI1039
aI1216
aI1329
aI1391
aI1414
aI1403
aI1524
aI1642
aI1669
aI1686
aI1605
aI1676
aI1545
aI1438
aI1408
aI1301
aI1395
aI1468
aI1506
aI1497
aI1549
aI1602
aI1584
aI1436
aI1756
aI1809
aI1756
aI1822
aI1769
aI1921
aI1770
aI1852
aI1852
aI1857
aI1746
aI1636
aI1719
aI1672
aI1724
aI1891
aI2024
aI2078
aI2096
aI1955
aI2125
aI2184
aI2321
aI2334
aI2144
aI2370
aI2405
aI2407
aI2432
aI2352
aI2438
aI2397
aI2362
aI2348
aI2361
aI2391
aI2432
aI2337
aI2344
aI2242
aI2365
aI2312
aI2265
aI2277
aI2319
aI2425
aI2314
aI2377
aI2501
aI2527
aI2388
aI2429
aI2459
aI2564
aI2660
aI2552
aI2645
aI2571
aI2549
aI2565
aI2532
aI2676
aI2813
aI2691
aI2479
aI2779
aI2830
aI2885
aI2861
aI2899
aI2862
aI2955
aI3003
aI3022
aI2808
aI2735
aI2989
aI2931
aI3042
aI3136
aI3163
aI3175
aI3229
aI3112
aI3321
aI3225
aI2861
aI3198
aI3198
aI2824
aI3164
aI3323
aI3133
aI3279
aI3367
aI3328
aI2843
aI3119
aI3253
aI3197
aI3349
aI3129
aI3233
aI3212
aI3461
aI3430
aI3163
aI3277
aI3449
aI3320
aI3498
aI3501
aI3613
aI3491
aI3461
aI3632
aI3528
aI3389
aI3423
aI3409
aI3465
aI3597
aI3557
aI3610
aI3503
aI3556
aI3563
aI3703
aI3580
aI3529
aI3523
aI3510
aI3584
aI3452
aI3495
aI3590
aI3465
aI3566
aI3729
aI3770
aI3665
aI3730
aI3726
aI3793
aI3761
aI3848
aI3967
aI3946
aI3899
aI3848
aI3723
aI3478
aI3594
aI3732
aI3777
aI3772
aI3873
aI3925
aI3849
aI3797
aI3998
aI3877
aI3853
aI3921
aI3981
aI4040
aI4069
aI4051
aI4030
aI3876
aI3991
aI4123
aI4318
aI4287
aI4215
aI4354
aI4248
aI4375
aI4237
aI4121
aI4018
aI3941
aI3929
aI4035
aI4095
aI4288
aI4251
aI4178
aI4054
aI4233
aI4201
aI4341
aI4432
aI4157
aI4229
aI4391
aI4452
aI4378
aI4545
aI4400
aI4329
aI4217
aI4316
aI4414
aI4472
aI4595
aI4566
aI4546
aI4441
aI4483
aI4675
aI4456
aI4653
aI4613
aI4502
aI4652
aI4730
aI4677
aI4588
aI4769
aI4621
aI4656
aI4721
aI4786
aI4530
aI4696
aI4606
aI4588
aI4422
aI4911
aI4890
aI4783
aI4825
aI4759
aI5024
aI5003
aI5023
aI5056
aI5104
aI4843
aI4826
aI4854
aI4942
aI4962
aI4836
aI4991
aI4984
aI4968
aI5068
aI4836
aI5067
aI5204
aI5232
aI5226
aI5152
aI5240
aI5273
aI5177
aI5153
aI5152
aI5131
aI5108
aI5198
aI5299
aI5352
aI5405
aI5456
aa(lp6
I964
aI632
aI745
aI740
aI721
aI694
aI728
aI738
aI831
aI826
aI845
aI855
aI857
aI853
aI858
aI870
aI890
aI903
aI911
aI914
aI915
aI910
aI898
aI936
aI999
aI1008
aI1006
aI994
aI1004
aI952
aI893
aI986
aI1009
aI1009
aI1009
aI1003
aI1028
aI1028
aI1028
aI1028
aI1028
aI1028
aI1024
aI971
aI999
aI1004
aI1009
aI1011
aI1007
aI1013
aI1101
aI1025
aI1028
aI1041
aI1138
aI1088
aI1252
aI1265
aI1091
aI1069
aI1052
aI1044
aI1047
aI1072
aI1159
aI1505
aI1177
aI1177
aI1139
aI1120
aI1043
aI1034
aI1021
aI953
aI1053
aI1193
aI1081
aI1081
aI1272
aI1059
aI1091
aI1104
aI1127
aI1149
aI1182
aI1190
aI1149
aI1160
aI1136
aI1138
aI1111
aI1154
aI1208
aI1259
aI1333
aI1400
aI1172
aI1283
aI1200
aI1270
aI1296
aI1338
aI1354
aI1435
aI1446
aI1569
aI1454
aI1500
aI1500
aI1432
aI1434
aI1553
aI1583
aI1556
aI1641
aI1686
aI1666
aI1563
aI1603
aI1591
aI1692
aI1586
aI1721
aI1821
aI1843
aI1850
aI1839
aI1849
aI1834
aI1936
aI1735
aI1581
aI1628
aI1805
aI1807
aI1498
aI1565
aI1812
aI2081
aI2215
aI2157
aI2006
aI2131
aI2243
aI2219
aI2349
aI2237
aI2023
aI1990
aI1959
aI1824
aI1845
aI1919
aI2063
aI2214
aI2424
aI2711
aI2638
aI2486
aI2558
aI2593
aI2511
aI2567
aI2562
aI2608
aI2741
aI2754
aI2673
aI2453
aI2530
aI2604
aI2899
aI2943
aI2750
aI2843
aI2991
aI2963
aI2976
aI3037
aI3043
aI2939
aI2945
aI2858
aI2780
aI2717
aI2640
aI2633
aI2730
aI2767
aI2817
aI2787
aI2880
aI3030
aI2952
aI3004
aI2698
aI2588
aI2677
aI2956
aI3150
aI3047
aI2739
aI2696
aI2704
aI2699
aI2850
aI2720
aI2741
aI2882
aI2725
aI2689
aI2702
aI2719
aI2725
aI2778
aI3072
aI3143
aI3177
aI3259
aI3034
aI3024
aI3299
aI3392
aI3271
aI3121
aI3017
aI2968
aI2848
aI2798
aI2787
aI2784
aI2802
aI2913
aI3154
aI3355
aI3384
aI3368
aI3357
aI3339
aI3250
aI3223
aI3264
aI3311
aI3243
aI3023
aI3017
aI3137
aI3357
aI3472
aI3546
aI3465
aI3457
aI3450
aI3484
aI3473
aI3490
aI3553
aI3549
aI3520
aI3518
aI3517
aI3517
aI3523
aI3485
aI3509
aI3565
aI3581
aI3646
aI3736
aI3812
aI3821
aI3818
aI3759
aI3729
aI3778
aI3729
aI3802
aI3901
aI3868
aI3888
aI3899
aI3788
aI3855
aI3906
aI3931
aI3935
aI3924
aI3927
aI3948
aI3945
aI3950
aI3937
aI3932
aI3908
aI3856
aI3898
aI3942
aI4006
aI3994
aI4005
aa.